target datalayout = "e-m:e-p270:32:32-p271:32:32-p272:64:64-i64:64-i128:128-f80:128-n8:16:32:64-S128"
target triple = "x86_64-pc-linux-gnu"

; Function Attrs: nounwind sspstrong uwtable
define internal i32 @release_thread_shield(ptr noundef %0, ptr noundef %1, i64 noundef %2, i32 noundef %3) #0 {
  %5 = alloca i32, align 4
  %6 = alloca ptr, align 8
  %7 = alloca ptr, align 8
  %8 = alloca i64, align 8
  %9 = alloca i32, align 4
  %10 = alloca i64, align 8
  %11 = alloca i32, align 4
  store ptr %0, ptr %6, align 8, !tbaa !48
  store ptr %1, ptr %7, align 8, !tbaa !48
  store i64 %2, ptr %8, align 8, !tbaa !12
  store i32 %3, ptr %9, align 4, !tbaa !39
  call void @llvm.lifetime.start.p0(i64 8, ptr %10) #8
  %12 = load ptr, ptr %7, align 8, !tbaa !48
  %13 = load i64, ptr %12, align 8, !tbaa !12
  store i64 %13, ptr %10, align 8, !tbaa !12
  %14 = load i32, ptr %9, align 4, !tbaa !39
  %15 = icmp ne i32 %14, 0
  br i1 %15, label %17, label %16

16:                                               ; preds = %4
  store i32 1, ptr %5, align 4
  store i32 1, ptr %11, align 4
  br label %33

17:                                               ; preds = %4
  %18 = load i64, ptr %8, align 8, !tbaa !12
  %19 = icmp ne i64 %18, 0
  br i1 %19, label %20, label %23

20:                                               ; preds = %17
  %21 = load i64, ptr %10, align 8, !tbaa !12
  %22 = call i64 @rb_thread_shield_destroy(i64 noundef %21)
  br label %29

23:                                               ; preds = %17
  %24 = load i64, ptr %10, align 8, !tbaa !12
  %25 = call i64 @rb_thread_shield_release(i64 noundef %24)
  %26 = icmp ne i64 %25, 0
  br i1 %26, label %27, label %28

27:                                               ; preds = %23
  store i32 0, ptr %5, align 4
  store i32 1, ptr %11, align 4
  br label %33

28:                                               ; preds = %23
  br label %29

29:                                               ; preds = %28, %20
  %30 = load ptr, ptr %6, align 8, !tbaa !48
  %31 = load i64, ptr %30, align 8, !tbaa !12
  %32 = inttoptr i64 %31 to ptr
  call void @ruby_xfree(ptr noundef %32)
  store i32 2, ptr %5, align 4
  store i32 1, ptr %11, align 4
  br label %33

33:                                               ; preds = %29, %27, %16
  call void @llvm.lifetime.end.p0(i64 8, ptr %10) #8
  %34 = load i32, ptr %5, align 4
  ret i32 %34
}