; Function Attrs: nounwind sspstrong uwtable
define internal range(i32 0, 3) i32 @release_thread_shield(ptr noundef readonly captures(none) %0, ptr noundef readonly captures(none) %1, i64 noundef %2, i32 noundef %3) #0 {
  %5 = load i64, ptr %1, align 8, !tbaa !42
  %.not = icmp eq i32 %3, 0
  br i1 %.not, label %14, label %6

6:                                                ; preds = %4
  %.not6 = icmp eq i64 %2, 0
  br i1 %.not6, label %9, label %7

7:                                                ; preds = %6
  %8 = tail call i64 @rb_thread_shield_destroy(i64 noundef %5) #7
  br label %11

9:                                                ; preds = %6
  %10 = tail call i64 @rb_thread_shield_release(i64 noundef %5) #7
  %.not7 = icmp eq i64 %10, 0
  br i1 %.not7, label %11, label %14

11:                                               ; preds = %9, %7
  %12 = load i64, ptr %0, align 8, !tbaa !42
  %13 = inttoptr i64 %12 to ptr
  tail call void @ruby_xfree(ptr noundef %13) #7
  br label %14

14:                                               ; preds = %9, %4, %11
  %.0 = phi i32 [ 2, %11 ], [ 1, %4 ], [ 0, %9 ]
  ret i32 %.0
}